target datalayout = "e-m:e-p270:32:32-p271:32:32-p272:64:64-i64:64-i128:128-f80:128-n8:16:32:64-S128"
target triple = "x86_64-pc-linux-gnu"

%struct.expert_field = type { i32, i32 }

@hf_ieee80211_twt_bcast_flow = internal global i32 0, align 4
@hf_ieee80211_twt_individual_flow = internal global i32 0, align 4
@hf_ieee80211_twt_bcast_teardown_all = internal global i32 0, align 4
@ett_twt_tear_down_tree = internal global i32 0, align 4
@ei_ieee80211_twt_tear_down_bad_neg_type = internal global %struct.expert_field zeroinitializer, align 4
@ieee80211_twt_teardown_all = internal constant [4 x ptr] [ptr @hf_ieee80211_twt_bcast_twt_id_reserved, ptr @hf_ieee80211_twt_bcast_neg_type_reserved, ptr @hf_ieee80211_twt_bcast_teardown_all_twt, ptr null], align 16
@ieee80211_twt_neg_type2 = internal constant [4 x ptr] [ptr @hf_ieee80211_twt_neg_type2_reserved1, ptr @hf_ieee80211_twt_neg_type, ptr @hf_ieee80211_twt_neg_type2_reserved2, ptr null], align 16
@ieee80211_twt_bcast_flow = internal constant [4 x ptr] [ptr @hf_ieee80211_twt_bcast_id, ptr @hf_ieee80211_twt_neg_type, ptr @hf_ieee80211_twt_bcast_teardown_all_twt, ptr null], align 16
@ieee80211_twt_individual_flow = internal constant [5 x ptr] [ptr @hf_ieee80211_twt_individual_flow_id, ptr @hf_ieee80211_twt_individual_reserved, ptr @hf_ieee80211_twt_neg_type, ptr @hf_ieee80211_twt_bcast_teardown_all_twt, ptr null], align 16

; Function Attrs: null_pointer_is_valid sspstrong uwtable
define internal i32 @add_ff_s1g_twt_teardown(ptr noundef %0, ptr noundef %1, ptr noundef %2, i32 noundef %3) #1 {
  %5 = alloca i32, align 4
  %6 = alloca ptr, align 8
  %7 = alloca ptr, align 8
  %8 = alloca ptr, align 8
  %9 = alloca i32, align 4
  %10 = alloca i8, align 1
  %11 = alloca i32, align 4
  store ptr %0, ptr %6, align 8
  store ptr %1, ptr %7, align 8
  store ptr %2, ptr %8, align 8
  store i32 %3, ptr %9, align 4
  call void @llvm.lifetime.start.p0(i64 1, ptr %10) #19
  %12 = load ptr, ptr %7, align 8
  %13 = load i32, ptr %9, align 4
  %14 = call zeroext i8 @tvb_get_uint8(ptr noundef %12, i32 noundef %13)
  store i8 %14, ptr %10, align 1
  %15 = load i8, ptr %10, align 1
  %16 = zext i8 %15 to i32
  %17 = and i32 %16, 128
  %18 = icmp ne i32 %17, 0
  br i1 %18, label %19, label %26

19:                                               ; preds = %4
  %20 = load ptr, ptr %6, align 8
  %21 = load ptr, ptr %7, align 8
  %22 = load i32, ptr %9, align 4
  %23 = load i32, ptr @hf_ieee80211_twt_bcast_teardown_all, align 4
  %24 = load i32, ptr @ett_twt_tear_down_tree, align 4
  %25 = call ptr @proto_tree_add_bitmask(ptr noundef %20, ptr noundef %21, i32 noundef %22, i32 noundef %23, i32 noundef %24, ptr noundef @ieee80211_twt_teardown_all, i32 noundef 0)
  store i32 1, ptr %5, align 4
  store i32 1, ptr %11, align 4
  br label %62

26:                                               ; preds = %4
  %27 = load i8, ptr %10, align 1
  %28 = zext i8 %27 to i32
  %29 = and i32 %28, 96
  %30 = ashr i32 %29, 5
  switch i32 %30, label %52 [
    i32 2, label %31
    i32 3, label %38
    i32 0, label %45
    i32 1, label %45
  ]

31:                                               ; preds = %26
  %32 = load ptr, ptr %6, align 8
  %33 = load ptr, ptr %7, align 8
  %34 = load i32, ptr %9, align 4
  %35 = load i32, ptr @hf_ieee80211_twt_bcast_flow, align 4
  %36 = load i32, ptr @ett_twt_tear_down_tree, align 4
  %37 = call ptr @proto_tree_add_bitmask_with_flags(ptr noundef %32, ptr noundef %33, i32 noundef %34, i32 noundef %35, i32 noundef %36, ptr noundef @ieee80211_twt_neg_type2, i32 noundef -2147483648, i32 noundef 0)
  br label %61

38:                                               ; preds = %26
  %39 = load ptr, ptr %6, align 8
  %40 = load ptr, ptr %7, align 8
  %41 = load i32, ptr %9, align 4
  %42 = load i32, ptr @hf_ieee80211_twt_bcast_flow, align 4
  %43 = load i32, ptr @ett_twt_tear_down_tree, align 4
  %44 = call ptr @proto_tree_add_bitmask_with_flags(ptr noundef %39, ptr noundef %40, i32 noundef %41, i32 noundef %42, i32 noundef %43, ptr noundef @ieee80211_twt_bcast_flow, i32 noundef -2147483648, i32 noundef 0)
  br label %61

45:                                               ; preds = %26, %26
  %46 = load ptr, ptr %6, align 8
  %47 = load ptr, ptr %7, align 8
  %48 = load i32, ptr %9, align 4
  %49 = load i32, ptr @hf_ieee80211_twt_individual_flow, align 4
  %50 = load i32, ptr @ett_twt_tear_down_tree, align 4
  %51 = call ptr @proto_tree_add_bitmask_with_flags(ptr noundef %46, ptr noundef %47, i32 noundef %48, i32 noundef %49, i32 noundef %50, ptr noundef @ieee80211_twt_individual_flow, i32 noundef -2147483648, i32 noundef 0)
  br label %61

52:                                               ; preds = %26
  %53 = load ptr, ptr %6, align 8
  %54 = load ptr, ptr %8, align 8
  %55 = load ptr, ptr %7, align 8
  %56 = load i32, ptr %9, align 4
  %57 = load ptr, ptr %7, align 8
  %58 = load i32, ptr %9, align 4
  %59 = call i32 @tvb_reported_length_remaining(ptr noundef %57, i32 noundef %58)
  %60 = call ptr @proto_tree_add_expert(ptr noundef %53, ptr noundef %54, ptr noundef @ei_ieee80211_twt_tear_down_bad_neg_type, ptr noundef %55, i32 noundef %56, i32 noundef %59)
  br label %61

61:                                               ; preds = %52, %45, %38, %31
  store i32 1, ptr %5, align 4
  store i32 1, ptr %11, align 4
  br label %62

62:                                               ; preds = %61, %19
  call void @llvm.lifetime.end.p0(i64 1, ptr %10) #19
  %63 = load i32, ptr %5, align 4
  ret i32 %63
}