; Function Attrs: null_pointer_is_valid sspstrong uwtable
define internal fastcc void @add_ff_s1g_twt_teardown(ptr noundef %0, ptr noundef %1, i32 noundef %2) unnamed_addr #2 {
  %4 = tail call zeroext i8 @tvb_get_uint8(ptr noundef %1, i32 noundef %2)
  %.not = icmp sgt i8 %4, -1
  br i1 %.not, label %9, label %5

5:                                                ; preds = %3
  %6 = load i32, ptr @hf_ieee80211_twt_bcast_teardown_all, align 4
  %7 = load i32, ptr @ett_twt_tear_down_tree, align 4
  %8 = tail call ptr @proto_tree_add_bitmask(ptr noundef %0, ptr noundef %1, i32 noundef %2, i32 noundef %6, i32 noundef %7, ptr noundef nonnull @ieee80211_twt_teardown_all, i32 noundef 0)
  br label %23

9:                                                ; preds = %3
  %10 = lshr i8 %4, 5
  switch i8 %10, label %default.unreachable [
    i8 2, label %11
    i8 3, label %15
    i8 0, label %19
    i8 1, label %19
  ]

11:                                               ; preds = %9
  %12 = load i32, ptr @hf_ieee80211_twt_bcast_flow, align 4
  %13 = load i32, ptr @ett_twt_tear_down_tree, align 4
  %14 = tail call ptr @proto_tree_add_bitmask_with_flags(ptr noundef %0, ptr noundef %1, i32 noundef %2, i32 noundef %12, i32 noundef %13, ptr noundef nonnull @ieee80211_twt_neg_type2, i32 noundef -2147483648, i32 noundef 0)
  br label %23

15:                                               ; preds = %9
  %16 = load i32, ptr @hf_ieee80211_twt_bcast_flow, align 4
  %17 = load i32, ptr @ett_twt_tear_down_tree, align 4
  %18 = tail call ptr @proto_tree_add_bitmask_with_flags(ptr noundef %0, ptr noundef %1, i32 noundef %2, i32 noundef %16, i32 noundef %17, ptr noundef nonnull @ieee80211_twt_bcast_flow, i32 noundef -2147483648, i32 noundef 0)
  br label %23

19:                                               ; preds = %9, %9
  %20 = load i32, ptr @hf_ieee80211_twt_individual_flow, align 4
  %21 = load i32, ptr @ett_twt_tear_down_tree, align 4
  %22 = tail call ptr @proto_tree_add_bitmask_with_flags(ptr noundef %0, ptr noundef %1, i32 noundef %2, i32 noundef %20, i32 noundef %21, ptr noundef nonnull @ieee80211_twt_individual_flow, i32 noundef -2147483648, i32 noundef 0)
  br label %23

default.unreachable:                              ; preds = %9
  unreachable

23:                                               ; preds = %11, %15, %19, %5
  ret void
}